target datalayout = "e-m:e-p270:32:32-p271:32:32-p272:64:64-i64:64-i128:128-f80:128-n8:16:32:64-S128"
target triple = "x86_64-pc-linux-gnu"

%struct._zend_refcounted_h = type { i32, %union.anon }
%union.anon = type { i32 }
%struct._zend_string = type { %struct._zend_refcounted_h, i64, i64, [1 x i8] }
%struct._zend_ini_entry = type { ptr, ptr, ptr, ptr, ptr, ptr, ptr, ptr, i32, i8, i8, i8 }

@.str.177 = private unnamed_addr constant [49 x i8] c"Invalid \22%s\22 setting. Should be between 1 and %d\00", align 1

; Function Attrs: nounwind uwtable
define internal i32 @OnUpdateUnrollC(ptr noundef %0, ptr noundef %1, ptr noundef %2, ptr noundef %3, ptr noundef %4, i32 noundef %5) #0 {
  %7 = alloca i32, align 4
  %8 = alloca ptr, align 8
  %9 = alloca ptr, align 8
  %10 = alloca ptr, align 8
  %11 = alloca ptr, align 8
  %12 = alloca ptr, align 8
  %13 = alloca i32, align 4
  %14 = alloca i64, align 8
  %15 = alloca ptr, align 8
  store ptr %0, ptr %8, align 8
  store ptr %1, ptr %9, align 8
  store ptr %2, ptr %10, align 8
  store ptr %3, ptr %11, align 8
  store ptr %4, ptr %12, align 8
  store i32 %5, ptr %13, align 4
  %16 = load ptr, ptr %9, align 8
  %17 = load ptr, ptr %8, align 8
  %18 = getelementptr inbounds %struct._zend_ini_entry, ptr %17, i32 0, i32 0
  %19 = load ptr, ptr %18, align 8
  %20 = call i64 @zend_ini_parse_quantity_warn(ptr noundef %16, ptr noundef %19)
  store i64 %20, ptr %14, align 8
  %21 = load i64, ptr %14, align 8
  %22 = icmp sgt i64 %21, 0
  br i1 %22, label %23, label %33

23:                                               ; preds = %6
  %24 = load i64, ptr %14, align 8
  %25 = icmp slt i64 %24, 10
  br i1 %25, label %26, label %33

26:                                               ; preds = %23
  %27 = load ptr, ptr %11, align 8
  %28 = load ptr, ptr %10, align 8
  %29 = ptrtoint ptr %28 to i64
  %30 = getelementptr inbounds i8, ptr %27, i64 %29
  store ptr %30, ptr %15, align 8
  %31 = load i64, ptr %14, align 8
  %32 = load ptr, ptr %15, align 8
  store i64 %31, ptr %32, align 8
  store i32 0, ptr %7, align 4
  br label %39

33:                                               ; preds = %23, %6
  %34 = load ptr, ptr %8, align 8
  %35 = getelementptr inbounds %struct._zend_ini_entry, ptr %34, i32 0, i32 0
  %36 = load ptr, ptr %35, align 8
  %37 = getelementptr inbounds %struct._zend_string, ptr %36, i32 0, i32 3
  %38 = getelementptr inbounds [1 x i8], ptr %37, i64 0, i64 0
  call void (i32, ptr, ...) @zend_error(i32 noundef 2, ptr noundef @.str.177, ptr noundef %38, i32 noundef 10)
  store i32 -1, ptr %7, align 4
  br label %39

39:                                               ; preds = %33, %26
  %40 = load i32, ptr %7, align 4
  ret i32 %40
}